; Function Attrs: nounwind sspstrong uwtable
define dso_local void @qio_channel_websock_handshake(ptr noundef %ioc, ptr noundef %func, ptr noundef %opaque, ptr noundef %destroy) local_unnamed_addr #0 {
entry:
  %_now.i.i4 = alloca %struct.timeval, align 8
  %_now.i.i = alloca %struct.timeval, align 8
  %call = tail call ptr @qio_task_new(ptr noundef %ioc, ptr noundef %func, ptr noundef %opaque, ptr noundef %destroy) #15
  call void @llvm.lifetime.start.p0(i64 16, ptr nonnull %_now.i.i)
  %0 = load i32, ptr @trace_events_enabled_count, align 4
  %tobool.i.i = icmp ne i32 %0, 0
  %1 = load i16, ptr @_TRACE_QIO_CHANNEL_WEBSOCK_HANDSHAKE_START_DSTATE, align 2
  %tobool4.i.i = icmp ne i16 %1, 0
  %or.cond.i.i = select i1 %tobool.i.i, i1 %tobool4.i.i, i1 false
  br i1 %or.cond.i.i, label %land.lhs.true5.i.i, label %trace_qio_channel_websock_handshake_start.exit

land.lhs.true5.i.i:                               ; preds = %entry
  %2 = load i32, ptr @qemu_loglevel, align 4
  %and.i.i.i = and i32 %2, 32768
  %cmp.i.not.i.i = icmp eq i32 %and.i.i.i, 0
  br i1 %cmp.i.not.i.i, label %trace_qio_channel_websock_handshake_start.exit, label %if.then.i.i

if.then.i.i:                                      ; preds = %land.lhs.true5.i.i
  %3 = load i8, ptr @message_with_timestamp, align 1
  %tobool7.i.i = trunc i8 %3 to i1
  br i1 %tobool7.i.i, label %if.then8.i.i, label %if.else.i.i

if.then8.i.i:                                     ; preds = %if.then.i.i
  %call9.i.i = call i32 @gettimeofday(ptr noundef nonnull %_now.i.i, ptr noundef null) #15
  %call10.i.i = tail call i32 @qemu_get_thread_id() #15
  %4 = load i64, ptr %_now.i.i, align 8
  %tv_usec.i.i = getelementptr inbounds nuw i8, ptr %_now.i.i, i64 8
  %5 = load i64, ptr %tv_usec.i.i, align 8
  tail call void (ptr, ...) @qemu_log(ptr noundef nonnull @.str.6, i32 noundef %call10.i.i, i64 noundef %4, i64 noundef %5, ptr noundef %ioc) #15
  br label %trace_qio_channel_websock_handshake_start.exit

if.else.i.i:                                      ; preds = %if.then.i.i
  tail call void (ptr, ...) @qemu_log(ptr noundef nonnull @.str.7, ptr noundef %ioc) #15
  br label %trace_qio_channel_websock_handshake_start.exit

trace_qio_channel_websock_handshake_start.exit:   ; preds = %entry, %land.lhs.true5.i.i, %if.then8.i.i, %if.else.i.i
  call void @llvm.lifetime.end.p0(i64 16, ptr nonnull %_now.i.i)
  call void @llvm.lifetime.start.p0(i64 16, ptr nonnull %_now.i.i4)
  %6 = load i32, ptr @trace_events_enabled_count, align 4
  %tobool.i.i5 = icmp ne i32 %6, 0
  %7 = load i16, ptr @_TRACE_QIO_CHANNEL_WEBSOCK_HANDSHAKE_PENDING_DSTATE, align 2
  %tobool4.i.i6 = icmp ne i16 %7, 0
  %or.cond.i.i7 = select i1 %tobool.i.i5, i1 %tobool4.i.i6, i1 false
  br i1 %or.cond.i.i7, label %land.lhs.true5.i.i8, label %trace_qio_channel_websock_handshake_pending.exit

land.lhs.true5.i.i8:                              ; preds = %trace_qio_channel_websock_handshake_start.exit
  %8 = load i32, ptr @qemu_loglevel, align 4
  %and.i.i.i9 = and i32 %8, 32768
  %cmp.i.not.i.i10 = icmp eq i32 %and.i.i.i9, 0
  br i1 %cmp.i.not.i.i10, label %trace_qio_channel_websock_handshake_pending.exit, label %if.then.i.i11

if.then.i.i11:                                    ; preds = %land.lhs.true5.i.i8
  %9 = load i8, ptr @message_with_timestamp, align 1
  %tobool7.i.i12 = trunc i8 %9 to i1
  br i1 %tobool7.i.i12, label %if.then8.i.i14, label %if.else.i.i13

if.then8.i.i14:                                   ; preds = %if.then.i.i11
  %call9.i.i15 = call i32 @gettimeofday(ptr noundef nonnull %_now.i.i4, ptr noundef null) #15
  %call10.i.i16 = tail call i32 @qemu_get_thread_id() #15
  %10 = load i64, ptr %_now.i.i4, align 8
  %tv_usec.i.i17 = getelementptr inbounds nuw i8, ptr %_now.i.i4, i64 8
  %11 = load i64, ptr %tv_usec.i.i17, align 8
  tail call void (ptr, ...) @qemu_log(ptr noundef nonnull @.str.8, i32 noundef %call10.i.i16, i64 noundef %10, i64 noundef %11, ptr noundef %ioc, i32 noundef range(i32 1, 5) 1) #15
  br label %trace_qio_channel_websock_handshake_pending.exit

if.else.i.i13:                                    ; preds = %if.then.i.i11
  tail call void (ptr, ...) @qemu_log(ptr noundef nonnull @.str.9, ptr noundef %ioc, i32 noundef range(i32 1, 5) 1) #15
  br label %trace_qio_channel_websock_handshake_pending.exit

trace_qio_channel_websock_handshake_pending.exit: ; preds = %trace_qio_channel_websock_handshake_start.exit, %land.lhs.true5.i.i8, %if.then8.i.i14, %if.else.i.i13
  call void @llvm.lifetime.end.p0(i64 16, ptr nonnull %_now.i.i4)
  %master = getelementptr inbounds nuw i8, ptr %ioc, i64 96
  %12 = load ptr, ptr %master, align 8
  %call1 = tail call i32 @qio_channel_add_watch(ptr noundef %12, i32 noundef 1, ptr noundef nonnull @qio_channel_websock_handshake_io, ptr noundef %call, ptr noundef null) #15
  ret void
}